target datalayout = "e-m:e-p270:32:32-p271:32:32-p272:64:64-i64:64-i128:128-f80:128-n8:16:32:64-S128"
target triple = "x86_64-pc-linux-gnu"

%"class.pbrt::Transform" = type { %"class.pbrt::SquareMatrix.0", %"class.pbrt::SquareMatrix.0" }
%"class.pbrt::SquareMatrix.0" = type { [4 x [4 x float]] }
%"class.pbrt::Vector3" = type { %"class.pbrt::Tuple3" }
%"class.pbrt::Tuple3" = type { float, float, float }
%"class.pbrt::Point3" = type { %"class.pbrt::Tuple3.1" }
%"class.pbrt::Tuple3.1" = type { float, float, float }
%"class.pbrt::Quaternion" = type { %"class.pbrt::Vector3", float }
%"class.pbrt::Medium" = type { %"class.pbrt::TaggedPointer" }
%"class.pbrt::TaggedPointer" = type { i64 }
%"struct.pbrt::AnimatedTransform::DerivativeTerm" = type { float, float, float, float }
%"class.pbrt::AnimatedTransform" = type { %"class.pbrt::Transform", %"class.pbrt::Transform", float, float, i8, [2 x %"class.pbrt::Vector3"], [2 x %"class.pbrt::Quaternion"], [2 x %"class.pbrt::SquareMatrix.0"], i8, [3 x %"struct.pbrt::AnimatedTransform::DerivativeTerm"], [3 x %"struct.pbrt::AnimatedTransform::DerivativeTerm"], [3 x %"struct.pbrt::AnimatedTransform::DerivativeTerm"], [3 x %"struct.pbrt::AnimatedTransform::DerivativeTerm"], [3 x %"struct.pbrt::AnimatedTransform::DerivativeTerm"] }
%"class.pbrt::Ray" = type { %"class.pbrt::Point3", %"class.pbrt::Vector3", float, %"class.pbrt::Medium" }
%"class.pbrt::RayDifferential" = type <{ %"class.pbrt::Ray", i8, [3 x i8], %"class.pbrt::Point3", %"class.pbrt::Point3", %"class.pbrt::Vector3", %"class.pbrt::Vector3", [4 x i8] }>

; Function Attrs: mustprogress uwtable
define dso_local void @_ZNK4pbrt17AnimatedTransformclERKNS_15RayDifferentialEPf(ptr dead_on_unwind noalias writable sret(%"class.pbrt::RayDifferential") align 8 %0, ptr noundef nonnull align 4 dereferenceable(696) %1, ptr noundef nonnull align 8 dereferenceable(92) %2, ptr noundef %3) #1 align 2 {
  %5 = alloca ptr, align 8
  %6 = alloca ptr, align 8
  %7 = alloca ptr, align 8
  %8 = alloca ptr, align 8
  %9 = alloca %"class.pbrt::Transform", align 4
  store ptr %0, ptr %5, align 8
  store ptr %1, ptr %6, align 8, !tbaa !118
  store ptr %2, ptr %7, align 8, !tbaa !144
  store ptr %3, ptr %8, align 8, !tbaa !47
  %10 = load ptr, ptr %6, align 8
  %11 = getelementptr inbounds nuw %"class.pbrt::AnimatedTransform", ptr %10, i32 0, i32 4
  %12 = load i8, ptr %11, align 4, !tbaa !127, !range !128, !noundef !129
  %13 = trunc i8 %12 to i1
  br i1 %13, label %14, label %21

14:                                               ; preds = %4
  %15 = load ptr, ptr %7, align 8, !tbaa !144
  %16 = getelementptr inbounds nuw %"class.pbrt::Ray", ptr %15, i32 0, i32 2
  %17 = load float, ptr %16, align 8, !tbaa !141
  %18 = getelementptr inbounds nuw %"class.pbrt::AnimatedTransform", ptr %10, i32 0, i32 2
  %19 = load float, ptr %18, align 4, !tbaa !121
  %20 = fcmp ole float %17, %19
  br i1 %20, label %21, label %25

21:                                               ; preds = %14, %4
  %22 = getelementptr inbounds nuw %"class.pbrt::AnimatedTransform", ptr %10, i32 0, i32 0
  %23 = load ptr, ptr %7, align 8, !tbaa !144
  %24 = load ptr, ptr %8, align 8, !tbaa !47
  call void @_ZNK4pbrt9TransformclERKNS_15RayDifferentialEPf(ptr dead_on_unwind writable sret(%"class.pbrt::RayDifferential") align 8 %0, ptr noundef nonnull align 4 dereferenceable(128) %22, ptr noundef nonnull align 8 dereferenceable(92) %23, ptr noundef %24)
  br label %42

25:                                               ; preds = %14
  %26 = load ptr, ptr %7, align 8, !tbaa !144
  %27 = getelementptr inbounds nuw %"class.pbrt::Ray", ptr %26, i32 0, i32 2
  %28 = load float, ptr %27, align 8, !tbaa !141
  %29 = getelementptr inbounds nuw %"class.pbrt::AnimatedTransform", ptr %10, i32 0, i32 3
  %30 = load float, ptr %29, align 4, !tbaa !126
  %31 = fcmp oge float %28, %30
  br i1 %31, label %32, label %36

32:                                               ; preds = %25
  %33 = getelementptr inbounds nuw %"class.pbrt::AnimatedTransform", ptr %10, i32 0, i32 1
  %34 = load ptr, ptr %7, align 8, !tbaa !144
  %35 = load ptr, ptr %8, align 8, !tbaa !47
  call void @_ZNK4pbrt9TransformclERKNS_15RayDifferentialEPf(ptr dead_on_unwind writable sret(%"class.pbrt::RayDifferential") align 8 %0, ptr noundef nonnull align 4 dereferenceable(128) %33, ptr noundef nonnull align 8 dereferenceable(92) %34, ptr noundef %35)
  br label %42

36:                                               ; preds = %25
  call void @llvm.lifetime.start.p0(i64 128, ptr %9) #20
  %37 = load ptr, ptr %7, align 8, !tbaa !144
  %38 = getelementptr inbounds nuw %"class.pbrt::Ray", ptr %37, i32 0, i32 2
  %39 = load float, ptr %38, align 8, !tbaa !141
  call void @_ZNK4pbrt17AnimatedTransform11InterpolateEf(ptr dead_on_unwind writable sret(%"class.pbrt::Transform") align 4 %9, ptr noundef nonnull align 4 dereferenceable(696) %10, float noundef %39)
  %40 = load ptr, ptr %7, align 8, !tbaa !144
  %41 = load ptr, ptr %8, align 8, !tbaa !47
  call void @_ZNK4pbrt9TransformclERKNS_15RayDifferentialEPf(ptr dead_on_unwind writable sret(%"class.pbrt::RayDifferential") align 8 %0, ptr noundef nonnull align 4 dereferenceable(128) %9, ptr noundef nonnull align 8 dereferenceable(92) %40, ptr noundef %41)
  call void @llvm.lifetime.end.p0(i64 128, ptr %9) #20
  br label %42

42:                                               ; preds = %36, %32, %21
  ret void
}