; Function Attrs: mustprogress uwtable
define dso_local void @_ZNK4pbrt17AnimatedTransformclERKNS_15RayDifferentialEPf(ptr dead_on_unwind noalias writable sret(%"class.pbrt::RayDifferential") align 8 %0, ptr noundef nonnull align 4 dereferenceable(696) %1, ptr noundef nonnull align 8 dereferenceable(92) %2, ptr noundef %3) local_unnamed_addr #9 align 2 {
  %5 = alloca %"class.pbrt::Transform", align 4
  %6 = getelementptr inbounds nuw i8, ptr %1, i64 264
  %7 = load i8, ptr %6, align 4, !tbaa !158, !range !32, !noundef !33
  %8 = trunc nuw i8 %7 to i1
  br i1 %8, label %9, label %15

9:                                                ; preds = %4
  %10 = getelementptr inbounds nuw i8, ptr %2, i64 24
  %11 = load float, ptr %10, align 8, !tbaa !162
  %12 = getelementptr inbounds nuw i8, ptr %1, i64 256
  %13 = load float, ptr %12, align 4, !tbaa !151
  %14 = fcmp ugt float %11, %13
  br i1 %14, label %16, label %15

15:                                               ; preds = %9, %4
  tail call void @_ZNK4pbrt9TransformclERKNS_15RayDifferentialEPf(ptr dead_on_unwind writable sret(%"class.pbrt::RayDifferential") align 8 %0, ptr noundef nonnull align 4 dereferenceable(128) %1, ptr noundef nonnull align 8 dereferenceable(92) %2, ptr noundef %3)
  br label %23

16:                                               ; preds = %9
  %17 = getelementptr inbounds nuw i8, ptr %1, i64 260
  %18 = load float, ptr %17, align 4, !tbaa !155
  %19 = fcmp ult float %11, %18
  br i1 %19, label %22, label %20

20:                                               ; preds = %16
  %21 = getelementptr inbounds nuw i8, ptr %1, i64 128
  tail call void @_ZNK4pbrt9TransformclERKNS_15RayDifferentialEPf(ptr dead_on_unwind writable sret(%"class.pbrt::RayDifferential") align 8 %0, ptr noundef nonnull align 4 dereferenceable(128) %21, ptr noundef nonnull align 8 dereferenceable(92) %2, ptr noundef %3)
  br label %23

22:                                               ; preds = %16
  call void @llvm.lifetime.start.p0(i64 128, ptr nonnull %5) #30
  call void @_ZNK4pbrt17AnimatedTransform11InterpolateEf(ptr dead_on_unwind nonnull writable sret(%"class.pbrt::Transform") align 4 %5, ptr noundef nonnull align 4 dereferenceable(696) %1, float noundef %11)
  call void @_ZNK4pbrt9TransformclERKNS_15RayDifferentialEPf(ptr dead_on_unwind writable sret(%"class.pbrt::RayDifferential") align 8 %0, ptr noundef nonnull align 4 dereferenceable(128) %5, ptr noundef nonnull align 8 dereferenceable(92) %2, ptr noundef %3)
  call void @llvm.lifetime.end.p0(i64 128, ptr nonnull %5) #30
  br label %23

23:                                               ; preds = %22, %20, %15
  ret void
}